; Function Attrs: nofree norecurse nosync nounwind memory(read, inaccessiblemem: none) uwtable
define noundef ptr @Wln_RetHeadToTail(ptr noundef readonly captures(none) %0, ptr noundef readonly %1) local_unnamed_addr #13 {
  %3 = getelementptr i8, ptr %0, i64 48
  %.val = load ptr, ptr %3, align 8, !tbaa !12
  %.pre = load i32, ptr %1, align 4, !tbaa !13
  br label %tailrecurse

tailrecurse:                                      ; preds = %tailrecurse, %2
  %4 = phi i32 [ %.pre, %2 ], [ %7, %tailrecurse ]
  %.tr7 = phi ptr [ %1, %2 ], [ %6, %tailrecurse ]
  %5 = sext i32 %4 to i64
  %6 = getelementptr inbounds i32, ptr %.val, i64 %5
  %7 = load i32, ptr %6, align 4, !tbaa !13
  %8 = icmp eq i32 %7, 0
  br i1 %8, label %9, label %tailrecurse

9:                                                ; preds = %tailrecurse
  ret ptr %.tr7
}